Certificate Request:
    Data:
        Version: 0 (0x0)
        Subject: C=US, ST=Pennsylvania, L=Philadelphia, O=Comcast Corporation, OU=NSO, CN=xmautoml-dev.comcast.net
        Subject Public Key Info:
            Public Key Algorithm: rsaEncryption
                Public-Key: (2048 bit)
                Modulus:
                    00:c3:63:34:af:60:6d:b2:86:3a:78:f1:3c:a3:95:
                    ba:38:c7:08:2b:c5:52:63:67:f9:71:ad:29:fb:0b:
                    9f:2b:19:10:ba:d6:a4:bd:a8:45:6b:3a:04:63:f1:
                    0a:8e:9a:f8:c3:b1:8b:9a:a4:f5:e4:33:22:2a:be:
                    e4:cb:58:db:14:1d:92:72:db:25:65:a0:c3:31:56:
                    eb:8d:8d:6c:8c:0c:71:9b:be:14:a4:70:1a:ea:b4:
                    39:43:32:c8:23:76:d9:e5:c4:2c:55:5e:42:e9:18:
                    02:ec:b5:c9:90:eb:76:2a:12:74:47:a7:7c:91:cb:
                    7e:b2:68:f2:9b:cc:b7:35:67:b2:f8:0d:15:bd:94:
                    b3:97:2a:da:dd:3f:b7:8c:12:d3:da:95:81:f9:82:
                    a6:2f:94:79:74:8e:54:79:af:2c:21:97:de:a3:b6:
                    e9:0a:44:71:6b:14:4e:df:82:76:31:fb:99:76:69:
                    91:6e:5b:43:6c:a7:3d:40:ad:96:bf:16:75:f4:7f:
                    a7:5e:42:66:74:fd:bd:32:55:9b:e2:6b:5e:8e:ad:
                    f5:53:88:11:26:9a:49:5a:e3:d3:68:2e:e6:68:6b:
                    c5:e4:86:12:6a:c6:89:d0:63:d1:91:40:5d:24:3b:
                    b1:93:68:e0:b9:0d:be:a0:ec:72:5a:d7:b4:4d:67:
                    18:a5
                Exponent: 65537 (0x10001)
        Attributes:
            a0:00
    Signature Algorithm: sha256WithRSAEncryption
         a8:45:c6:06:58:ef:8b:65:90:3e:73:f8:f1:60:46:fb:bf:b2:
         8e:7c:e6:60:a2:2a:8a:38:69:7f:48:d8:02:8b:39:e4:82:ee:
         2d:64:3f:13:01:1a:5f:fb:78:85:bb:e7:39:8e:fc:09:5b:b8:
         01:b4:a2:16:f1:ca:73:7d:2e:4c:d4:84:4c:88:0a:a6:ce:01:
         19:93:d7:71:11:a0:f1:98:94:ce:ed:8d:a7:13:50:29:29:2c:
         aa:11:5f:4b:c5:52:ee:d2:d5:af:08:55:eb:01:86:32:78:0b:
         ea:56:da:a3:31:3b:26:b7:4b:d7:80:7c:a4:2d:ae:2d:62:34:
         3a:8f:76:3e:99:78:ea:85:33:6e:cf:09:8c:a7:e3:db:19:ed:
         64:af:1d:18:73:69:fb:35:5a:28:95:2f:91:6b:66:e2:7f:6e:
         3d:12:37:e9:74:88:bb:7b:25:4a:05:4e:65:21:5b:53:ff:24:
         ec:a5:ce:c1:a2:e9:0a:30:2b:40:46:c5:5f:5a:bc:16:91:d7:
         92:4f:64:30:95:a1:ef:f2:ad:2d:f4:20:e5:dd:cd:b5:9f:42:
         eb:5a:03:b2:de:87:0e:61:d8:c7:a3:87:1b:c3:42:86:79:68:
         4d:82:4d:9e:0f:b1:e4:2a:02:d0:99:94:12:96:7d:81:8c:97:
         2f:d0:d2:d0
-----BEGIN CERTIFICATE REQUEST-----
MIIC0DCCAbgCAQAwgYoxCzAJBgNVBAYTAlVTMRUwEwYDVQQIDAxQZW5uc3lsdmFu
aWExFTATBgNVBAcMDFBoaWxhZGVscGhpYTEcMBoGA1UECgwTQ29tY2FzdCBDb3Jw
b3JhdGlvbjEMMAoGA1UECwwDTlNPMSEwHwYDVQQDDBh4bWF1dG9tbC1kZXYuY29t
Y2FzdC5uZXQwggEiMA0GCSqGSIb3DQEBAQUAA4IBDwAwggEKAoIBAQDDYzSvYG2y
hjp48Tyjlbo4xwgrxVJjZ/lxrSn7C58rGRC61qS9qEVrOgRj8QqOmvjDsYuapPXk
MyIqvuTLWNsUHZJy2yVloMMxVuuNjWyMDHGbvhSkcBrqtDlDMsgjdtnlxCxVXkLp
GALstcmQ63YqEnRHp3yRy36yaPKbzLc1Z7L4DRW9lLOXKtrdP7eMEtPalYH5gqYv
lHl0jlR5rywhl96jtukKRHFrFE7fgnYx+5l2aZFuW0Nspz1ArZa/FnX0f6deQmZ0
/b0yVZvia16OrfVTiBEmmkla49NoLuZoa8XkhhJqxonQY9GRQF0kO7GTaOC5Db6g
7HJa17RNZxilAgMBAAGgADANBgkqhkiG9w0BAQsFAAOCAQEAqEXGBljvi2WQPnP4
8WBG+7+yjnzmYKIqijhpf0jYAos55ILuLWQ/EwEaX/t4hbvnOY78CVu4AbSiFvHK
c30uTNSETIgKps4BGZPXcRGg8ZiUzu2NpxNQKSksqhFfS8VS7tLVrwhV6wGGMngL
6lbaozE7JrdL14B8pC2uLWI0Oo92Ppl46oUzbs8JjKfj2xntZK8dGHNp+zVaKJUv
kWtm4n9uPRI36XSIu3slSgVOZSFbU/8k7KXOwaLpCjArQEbFX1q8FpHXkk9kMJWh
7/KtLfQg5d3NtZ9C61oDst6HDmHYx6OHG8NChnloTYJNng+x5CoC0JmUEpZ9gYyX
L9DS0A==
-----END CERTIFICATE REQUEST-----
